; Function Attrs: mustprogress nofree norecurse nosync nounwind willreturn memory(read, inaccessiblemem: none) uwtable
define noundef range(i32 -2147483648, 32767) i32 @_ZNK8facebook5velox6common3hll8DenseHll17findOverflowEntryEi(ptr noundef nonnull readonly align 8 captures(none) dereferenceable(112) %this, i32 noundef %index) local_unnamed_addr #3 align 2 {
entry:
  %overflows_ = getelementptr inbounds nuw i8, ptr %this, i64 40
  %0 = load i16, ptr %overflows_, align 8
  %cmp5 = icmp sgt i16 %0, 0
  br i1 %cmp5, label %for.body.lr.ph, label %return

for.body.lr.ph:                                   ; preds = %entry
  %conv = zext nneg i16 %0 to i64
  %add.ptr.i = getelementptr inbounds nuw i8, ptr %this, i64 56
  %1 = load ptr, ptr %add.ptr.i, align 8
  br label %for.body

for.body:                                         ; preds = %for.body.lr.ph, %for.inc
  %indvars.iv = phi i64 [ 0, %for.body.lr.ph ], [ %indvars.iv.next, %for.inc ]
  %add.ptr2.i = getelementptr inbounds nuw i16, ptr %1, i64 %indvars.iv
  %2 = load i16, ptr %add.ptr2.i, align 2
  %conv3 = zext i16 %2 to i32
  %cmp4 = icmp eq i32 %index, %conv3
  br i1 %cmp4, label %return.loopexit.split.loop.exit9, label %for.inc

for.inc:                                          ; preds = %for.body
  %indvars.iv.next = add nuw nsw i64 %indvars.iv, 1
  %exitcond.not = icmp eq i64 %indvars.iv.next, %conv
  br i1 %exitcond.not, label %return, label %for.body, !llvm.loop !6

return.loopexit.split.loop.exit9:                 ; preds = %for.body
  %3 = trunc nuw nsw i64 %indvars.iv to i32
  br label %return

return:                                           ; preds = %for.inc, %return.loopexit.split.loop.exit9, %entry
  %retval.0 = phi i32 [ -1, %entry ], [ %3, %return.loopexit.split.loop.exit9 ], [ -1, %for.inc ]
  ret i32 %retval.0
}